target datalayout = "e-m:e-p270:32:32-p271:32:32-p272:64:64-i64:64-i128:128-f80:128-n8:16:32:64-S128"
target triple = "x86_64-pc-linux-gnu"

%class.btConvexConcaveCollisionAlgorithm = type <{ %class.btActivatingCollisionAlgorithm, %class.btConvexTriangleCallback, i8, [7 x i8] }>
%class.btActivatingCollisionAlgorithm = type { %class.btCollisionAlgorithm }
%class.btCollisionAlgorithm = type { ptr, ptr }
%class.btConvexTriangleCallback = type { %class.btTriangleCallback, %class.btVector3, %class.btVector3, ptr, ptr, ptr, ptr, ptr, float, i32, ptr }
%class.btTriangleCallback = type { ptr }
%class.btVector3 = type { [4 x float] }
%class.btAlignedObjectArray = type <{ [4 x i8], i32, i32, [4 x i8], ptr, i8, [7 x i8] }>

; Function Attrs: mustprogress uwtable
define linkonce_odr dso_local void @_ZN18btAlignedAllocatorIP20btPersistentManifoldLj16EE10deallocateEPS1_(ptr noundef nonnull align 1 dereferenceable(1) %0, ptr noundef %1) #2 comdat align 2 {
  %3 = alloca ptr, align 8
  %4 = alloca ptr, align 8
  store ptr %0, ptr %3, align 8, !tbaa !183
  store ptr %1, ptr %4, align 8, !tbaa !42
  %5 = load ptr, ptr %4, align 8, !tbaa !42
  call void @_Z21btAlignedFreeInternalPv(ptr noundef %5)
  ret void
}

; Function Attrs: mustprogress uwtable
define linkonce_odr dso_local noundef ptr @_ZN18btAlignedAllocatorIP20btPersistentManifoldLj16EE8allocateEiPPKS1_(ptr noundef nonnull align 1 dereferenceable(1) %0, i32 noundef %1, ptr noundef %2) #2 comdat align 2 {
  %4 = alloca ptr, align 8
  %5 = alloca i32, align 4
  %6 = alloca ptr, align 8
  store ptr %0, ptr %4, align 8, !tbaa !183
  store i32 %1, ptr %5, align 4, !tbaa !9
  store ptr %2, ptr %6, align 8, !tbaa !185
  %7 = load i32, ptr %5, align 4, !tbaa !9
  %8 = sext i32 %7 to i64
  %9 = mul i64 8, %8
  %10 = call noundef ptr @_Z22btAlignedAllocInternalmi(i64 noundef %9, i32 noundef 16)
  ret ptr %10
}

; Function Attrs: inlinehint mustprogress uwtable
define linkonce_odr dso_local void @_ZN20btAlignedObjectArrayIP20btPersistentManifoldE10deallocateEv(ptr noundef nonnull align 8 dereferenceable(25) %0) #6 comdat align 2 {
  %2 = alloca ptr, align 8
  store ptr %0, ptr %2, align 8, !tbaa !39
  %3 = load ptr, ptr %2, align 8
  %4 = getelementptr inbounds nuw %class.btAlignedObjectArray, ptr %3, i32 0, i32 4
  %5 = load ptr, ptr %4, align 8, !tbaa !44
  %6 = icmp ne ptr %5, null
  br i1 %6, label %7, label %16

7:                                                ; preds = %1
  %8 = getelementptr inbounds nuw %class.btAlignedObjectArray, ptr %3, i32 0, i32 5
  %9 = load i8, ptr %8, align 8, !tbaa !180, !range !26, !noundef !27
  %10 = trunc i8 %9 to i1
  br i1 %10, label %11, label %14

11:                                               ; preds = %7
  %12 = getelementptr inbounds nuw %class.btAlignedObjectArray, ptr %3, i32 0, i32 4
  %13 = load ptr, ptr %12, align 8, !tbaa !44
  call void @_ZN18btAlignedAllocatorIP20btPersistentManifoldLj16EE10deallocateEPS1_(ptr noundef nonnull align 1 dereferenceable(1) %3, ptr noundef %13)
  br label %14

14:                                               ; preds = %11, %7
  %15 = getelementptr inbounds nuw %class.btAlignedObjectArray, ptr %3, i32 0, i32 4
  store ptr null, ptr %15, align 8, !tbaa !44
  br label %16

16:                                               ; preds = %14, %1
  ret void
}

; Function Attrs: inlinehint mustprogress nounwind uwtable
define linkonce_odr dso_local void @_ZN20btAlignedObjectArrayIP20btPersistentManifoldE7destroyEii(ptr noundef nonnull align 8 dereferenceable(25) %0, i32 noundef %1, i32 noundef %2) #5 comdat align 2 {
  %4 = alloca ptr, align 8
  %5 = alloca i32, align 4
  %6 = alloca i32, align 4
  %7 = alloca i32, align 4
  store ptr %0, ptr %4, align 8, !tbaa !39
  store i32 %1, ptr %5, align 4, !tbaa !9
  store i32 %2, ptr %6, align 4, !tbaa !9
  call void @llvm.lifetime.start.p0(i64 4, ptr %7) #14
  %8 = load i32, ptr %5, align 4, !tbaa !9
  store i32 %8, ptr %7, align 4, !tbaa !9
  br label %9

9:                                                ; preds = %14, %3
  %10 = load i32, ptr %7, align 4, !tbaa !9
  %11 = load i32, ptr %6, align 4, !tbaa !9
  %12 = icmp slt i32 %10, %11
  br i1 %12, label %13, label %17

13:                                               ; preds = %9
  br label %14

14:                                               ; preds = %13
  %15 = load i32, ptr %7, align 4, !tbaa !9
  %16 = add nsw i32 %15, 1
  store i32 %16, ptr %7, align 4, !tbaa !9
  br label %9, !llvm.loop !182

17:                                               ; preds = %9
  call void @llvm.lifetime.end.p0(i64 4, ptr %7) #14
  ret void
}

; Function Attrs: inlinehint mustprogress nounwind uwtable
define linkonce_odr dso_local void @_ZNK20btAlignedObjectArrayIP20btPersistentManifoldE4copyEiiPS1_(ptr noundef nonnull align 8 dereferenceable(25) %0, i32 noundef %1, i32 noundef %2, ptr noundef %3) #5 comdat align 2 {
  %5 = alloca ptr, align 8
  %6 = alloca i32, align 4
  %7 = alloca i32, align 4
  %8 = alloca ptr, align 8
  %9 = alloca i32, align 4
  store ptr %0, ptr %5, align 8, !tbaa !39
  store i32 %1, ptr %6, align 4, !tbaa !9
  store i32 %2, ptr %7, align 4, !tbaa !9
  store ptr %3, ptr %8, align 8, !tbaa !42
  %10 = load ptr, ptr %5, align 8
  call void @llvm.lifetime.start.p0(i64 4, ptr %9) #14
  %11 = load i32, ptr %6, align 4, !tbaa !9
  store i32 %11, ptr %9, align 4, !tbaa !9
  br label %12

12:                                               ; preds = %27, %4
  %13 = load i32, ptr %9, align 4, !tbaa !9
  %14 = load i32, ptr %7, align 4, !tbaa !9
  %15 = icmp slt i32 %13, %14
  br i1 %15, label %16, label %30

16:                                               ; preds = %12
  %17 = load ptr, ptr %8, align 8, !tbaa !42
  %18 = load i32, ptr %9, align 4, !tbaa !9
  %19 = sext i32 %18 to i64
  %20 = getelementptr inbounds ptr, ptr %17, i64 %19
  %21 = getelementptr inbounds nuw %class.btAlignedObjectArray, ptr %10, i32 0, i32 4
  %22 = load ptr, ptr %21, align 8, !tbaa !44
  %23 = load i32, ptr %9, align 4, !tbaa !9
  %24 = sext i32 %23 to i64
  %25 = getelementptr inbounds ptr, ptr %22, i64 %24
  %26 = load ptr, ptr %25, align 8, !tbaa !48
  store ptr %26, ptr %20, align 8, !tbaa !48
  br label %27

27:                                               ; preds = %16
  %28 = load i32, ptr %9, align 4, !tbaa !9
  %29 = add nsw i32 %28, 1
  store i32 %29, ptr %9, align 4, !tbaa !9
  br label %12, !llvm.loop !181

30:                                               ; preds = %12
  call void @llvm.lifetime.end.p0(i64 4, ptr %9) #14
  ret void
}

; Function Attrs: inlinehint mustprogress uwtable
define linkonce_odr dso_local noundef ptr @_ZN20btAlignedObjectArrayIP20btPersistentManifoldE8allocateEi(ptr noundef nonnull align 8 dereferenceable(25) %0, i32 noundef %1) #6 comdat align 2 {
  %3 = alloca ptr, align 8
  %4 = alloca ptr, align 8
  %5 = alloca i32, align 4
  store ptr %0, ptr %4, align 8, !tbaa !39
  store i32 %1, ptr %5, align 4, !tbaa !9
  %6 = load ptr, ptr %4, align 8
  %7 = load i32, ptr %5, align 4, !tbaa !9
  %8 = icmp ne i32 %7, 0
  br i1 %8, label %9, label %12

9:                                                ; preds = %2
  %10 = load i32, ptr %5, align 4, !tbaa !9
  %11 = call noundef ptr @_ZN18btAlignedAllocatorIP20btPersistentManifoldLj16EE8allocateEiPPKS1_(ptr noundef nonnull align 1 dereferenceable(1) %6, i32 noundef %10, ptr noundef null)
  store ptr %11, ptr %3, align 8
  br label %13

12:                                               ; preds = %2
  store ptr null, ptr %3, align 8
  br label %13

13:                                               ; preds = %12, %9
  %14 = load ptr, ptr %3, align 8
  ret ptr %14
}

; Function Attrs: inlinehint mustprogress uwtable
define linkonce_odr dso_local void @_ZN20btAlignedObjectArrayIP20btPersistentManifoldE7reserveEi(ptr noundef nonnull align 8 dereferenceable(25) %0, i32 noundef %1) #6 comdat align 2 {
  %3 = alloca ptr, align 8
  %4 = alloca i32, align 4
  %5 = alloca ptr, align 8
  store ptr %0, ptr %3, align 8, !tbaa !39
  store i32 %1, ptr %4, align 4, !tbaa !9
  %6 = load ptr, ptr %3, align 8
  %7 = call noundef i32 @_ZNK20btAlignedObjectArrayIP20btPersistentManifoldE8capacityEv(ptr noundef nonnull align 8 dereferenceable(25) %6)
  %8 = load i32, ptr %4, align 4, !tbaa !9
  %9 = icmp slt i32 %7, %8
  br i1 %9, label %10, label %21

10:                                               ; preds = %2
  call void @llvm.lifetime.start.p0(i64 8, ptr %5) #14
  %11 = load i32, ptr %4, align 4, !tbaa !9
  %12 = call noundef ptr @_ZN20btAlignedObjectArrayIP20btPersistentManifoldE8allocateEi(ptr noundef nonnull align 8 dereferenceable(25) %6, i32 noundef %11)
  store ptr %12, ptr %5, align 8, !tbaa !42
  %13 = call noundef i32 @_ZNK20btAlignedObjectArrayIP20btPersistentManifoldE4sizeEv(ptr noundef nonnull align 8 dereferenceable(25) %6)
  %14 = load ptr, ptr %5, align 8, !tbaa !42
  call void @_ZNK20btAlignedObjectArrayIP20btPersistentManifoldE4copyEiiPS1_(ptr noundef nonnull align 8 dereferenceable(25) %6, i32 noundef 0, i32 noundef %13, ptr noundef %14)
  %15 = call noundef i32 @_ZNK20btAlignedObjectArrayIP20btPersistentManifoldE4sizeEv(ptr noundef nonnull align 8 dereferenceable(25) %6)
  call void @_ZN20btAlignedObjectArrayIP20btPersistentManifoldE7destroyEii(ptr noundef nonnull align 8 dereferenceable(25) %6, i32 noundef 0, i32 noundef %15)
  call void @_ZN20btAlignedObjectArrayIP20btPersistentManifoldE10deallocateEv(ptr noundef nonnull align 8 dereferenceable(25) %6)
  %16 = getelementptr inbounds nuw %class.btAlignedObjectArray, ptr %6, i32 0, i32 5
  store i8 1, ptr %16, align 8, !tbaa !180
  %17 = load ptr, ptr %5, align 8, !tbaa !42
  %18 = getelementptr inbounds nuw %class.btAlignedObjectArray, ptr %6, i32 0, i32 4
  store ptr %17, ptr %18, align 8, !tbaa !44
  %19 = load i32, ptr %4, align 4, !tbaa !9
  %20 = getelementptr inbounds nuw %class.btAlignedObjectArray, ptr %6, i32 0, i32 2
  store i32 %19, ptr %20, align 8, !tbaa !179
  call void @llvm.lifetime.end.p0(i64 8, ptr %5) #14
  br label %21

21:                                               ; preds = %10, %2
  ret void
}

; Function Attrs: inlinehint mustprogress nounwind uwtable
define linkonce_odr dso_local noundef i32 @_ZN20btAlignedObjectArrayIP20btPersistentManifoldE9allocSizeEi(ptr noundef nonnull align 8 dereferenceable(25) %0, i32 noundef %1) #5 comdat align 2 {
  %3 = alloca ptr, align 8
  %4 = alloca i32, align 4
  store ptr %0, ptr %3, align 8, !tbaa !39
  store i32 %1, ptr %4, align 4, !tbaa !9
  %5 = load i32, ptr %4, align 4, !tbaa !9
  %6 = icmp ne i32 %5, 0
  br i1 %6, label %7, label %10

7:                                                ; preds = %2
  %8 = load i32, ptr %4, align 4, !tbaa !9
  %9 = mul nsw i32 %8, 2
  br label %11

10:                                               ; preds = %2
  br label %11

11:                                               ; preds = %10, %7
  %12 = phi i32 [ %9, %7 ], [ 1, %10 ]
  ret i32 %12
}

; Function Attrs: inlinehint mustprogress nounwind uwtable
define linkonce_odr dso_local noundef i32 @_ZNK20btAlignedObjectArrayIP20btPersistentManifoldE8capacityEv(ptr noundef nonnull align 8 dereferenceable(25) %0) #5 comdat align 2 {
  %2 = alloca ptr, align 8
  store ptr %0, ptr %2, align 8, !tbaa !39
  %3 = load ptr, ptr %2, align 8
  %4 = getelementptr inbounds nuw %class.btAlignedObjectArray, ptr %3, i32 0, i32 2
  %5 = load i32, ptr %4, align 8, !tbaa !179
  ret i32 %5
}

; Function Attrs: inlinehint mustprogress nounwind uwtable
define linkonce_odr dso_local noundef i32 @_ZNK20btAlignedObjectArrayIP20btPersistentManifoldE4sizeEv(ptr noundef nonnull align 8 dereferenceable(25) %0) #5 comdat align 2 {
  %2 = alloca ptr, align 8
  store ptr %0, ptr %2, align 8, !tbaa !39
  %3 = load ptr, ptr %2, align 8
  %4 = getelementptr inbounds nuw %class.btAlignedObjectArray, ptr %3, i32 0, i32 1
  %5 = load i32, ptr %4, align 4, !tbaa !47
  ret i32 %5
}

; Function Attrs: inlinehint mustprogress uwtable
define linkonce_odr dso_local void @_ZN20btAlignedObjectArrayIP20btPersistentManifoldE9push_backERKS1_(ptr noundef nonnull align 8 dereferenceable(25) %0, ptr noundef nonnull align 8 dereferenceable(8) %1) #6 comdat align 2 {
  %3 = alloca ptr, align 8
  %4 = alloca ptr, align 8
  %5 = alloca i32, align 4
  store ptr %0, ptr %3, align 8, !tbaa !39
  store ptr %1, ptr %4, align 8, !tbaa !42
  %6 = load ptr, ptr %3, align 8
  call void @llvm.lifetime.start.p0(i64 4, ptr %5) #14
  %7 = call noundef i32 @_ZNK20btAlignedObjectArrayIP20btPersistentManifoldE4sizeEv(ptr noundef nonnull align 8 dereferenceable(25) %6)
  store i32 %7, ptr %5, align 4, !tbaa !9
  %8 = load i32, ptr %5, align 4, !tbaa !9
  %9 = call noundef i32 @_ZNK20btAlignedObjectArrayIP20btPersistentManifoldE8capacityEv(ptr noundef nonnull align 8 dereferenceable(25) %6)
  %10 = icmp eq i32 %8, %9
  br i1 %10, label %11, label %14

11:                                               ; preds = %2
  %12 = call noundef i32 @_ZNK20btAlignedObjectArrayIP20btPersistentManifoldE4sizeEv(ptr noundef nonnull align 8 dereferenceable(25) %6)
  %13 = call noundef i32 @_ZN20btAlignedObjectArrayIP20btPersistentManifoldE9allocSizeEi(ptr noundef nonnull align 8 dereferenceable(25) %6, i32 noundef %12)
  call void @_ZN20btAlignedObjectArrayIP20btPersistentManifoldE7reserveEi(ptr noundef nonnull align 8 dereferenceable(25) %6, i32 noundef %13)
  br label %14

14:                                               ; preds = %11, %2
  %15 = getelementptr inbounds nuw %class.btAlignedObjectArray, ptr %6, i32 0, i32 4
  %16 = load ptr, ptr %15, align 8, !tbaa !44
  %17 = getelementptr inbounds nuw %class.btAlignedObjectArray, ptr %6, i32 0, i32 1
  %18 = load i32, ptr %17, align 4, !tbaa !47
  %19 = sext i32 %18 to i64
  %20 = getelementptr inbounds ptr, ptr %16, i64 %19
  %21 = load ptr, ptr %4, align 8, !tbaa !42
  %22 = load ptr, ptr %21, align 8, !tbaa !48
  store ptr %22, ptr %20, align 8, !tbaa !48
  %23 = getelementptr inbounds nuw %class.btAlignedObjectArray, ptr %6, i32 0, i32 1
  %24 = load i32, ptr %23, align 4, !tbaa !47
  %25 = add nsw i32 %24, 1
  store i32 %25, ptr %23, align 4, !tbaa !47
  call void @llvm.lifetime.end.p0(i64 4, ptr %5) #14
  ret void
}

; Function Attrs: mustprogress uwtable
define dso_local void @_ZN33btConvexConcaveCollisionAlgorithm22getAllContactManifoldsER20btAlignedObjectArrayIP20btPersistentManifoldE(ptr noundef nonnull align 8 dereferenceable(113) %0, ptr noundef nonnull align 8 dereferenceable(25) %1) unnamed_addr #2 align 2 {
  %3 = alloca ptr, align 8
  %4 = alloca ptr, align 8
  store ptr %0, ptr %3, align 8, !tbaa !12
  store ptr %1, ptr %4, align 8, !tbaa !39
  %5 = load ptr, ptr %3, align 8
  %6 = getelementptr inbounds nuw %class.btConvexConcaveCollisionAlgorithm, ptr %5, i32 0, i32 1
  %7 = getelementptr inbounds nuw %class.btConvexTriangleCallback, ptr %6, i32 0, i32 10
  %8 = load ptr, ptr %7, align 8, !tbaa !41
  %9 = icmp ne ptr %8, null
  br i1 %9, label %10, label %14

10:                                               ; preds = %2
  %11 = load ptr, ptr %4, align 8, !tbaa !39
  %12 = getelementptr inbounds nuw %class.btConvexConcaveCollisionAlgorithm, ptr %5, i32 0, i32 1
  %13 = getelementptr inbounds nuw %class.btConvexTriangleCallback, ptr %12, i32 0, i32 10
  call void @_ZN20btAlignedObjectArrayIP20btPersistentManifoldE9push_backERKS1_(ptr noundef nonnull align 8 dereferenceable(25) %11, ptr noundef nonnull align 8 dereferenceable(8) %13)
  br label %14

14:                                               ; preds = %10, %2
  ret void
}