; Function Attrs: mustprogress uwtable
define dso_local void @_ZN33btConvexConcaveCollisionAlgorithm22getAllContactManifoldsER20btAlignedObjectArrayIP20btPersistentManifoldE(ptr noundef nonnull readonly align 8 captures(none) dereferenceable(113) %0, ptr noundef nonnull align 8 captures(none) dereferenceable(25) %1) unnamed_addr #0 align 2 {
  %3 = getelementptr inbounds nuw i8, ptr %0, i64 104
  %4 = load ptr, ptr %3, align 8, !tbaa !36
  %.not = icmp eq ptr %4, null
  br i1 %.not, label %40, label %5

5:                                                ; preds = %2
  %6 = getelementptr inbounds nuw i8, ptr %1, i64 4
  %7 = load i32, ptr %6, align 4, !tbaa !37
  %8 = getelementptr inbounds nuw i8, ptr %1, i64 8
  %9 = load i32, ptr %8, align 8, !tbaa !41
  %10 = icmp eq i32 %7, %9
  br i1 %10, label %11, label %_ZN20btAlignedObjectArrayIP20btPersistentManifoldE9push_backERKS1_.exit

11:                                               ; preds = %5
  %.not.i.i = icmp eq i32 %7, 0
  %12 = shl nsw i32 %7, 1
  %13 = select i1 %.not.i.i, i32 1, i32 %12
  %14 = icmp slt i32 %7, %13
  br i1 %14, label %15, label %_ZN20btAlignedObjectArrayIP20btPersistentManifoldE9push_backERKS1_.exit

15:                                               ; preds = %11
  %.not.i.i.i = icmp eq i32 %13, 0
  br i1 %.not.i.i.i, label %_ZN20btAlignedObjectArrayIP20btPersistentManifoldE8allocateEi.exit.i.i, label %16

16:                                               ; preds = %15
  %17 = sext i32 %13 to i64
  %18 = shl nsw i64 %17, 3
  %19 = tail call noundef ptr @_Z22btAlignedAllocInternalmi(i64 noundef %18, i32 noundef 16)
  %.pre.i = load i32, ptr %6, align 4, !tbaa !37
  br label %_ZN20btAlignedObjectArrayIP20btPersistentManifoldE8allocateEi.exit.i.i

_ZN20btAlignedObjectArrayIP20btPersistentManifoldE8allocateEi.exit.i.i: ; preds = %16, %15
  %20 = phi i32 [ %.pre.i, %16 ], [ %7, %15 ]
  %.0.i.i.i = phi ptr [ %19, %16 ], [ null, %15 ]
  %21 = icmp sgt i32 %20, 0
  %22 = getelementptr inbounds nuw i8, ptr %1, i64 16
  %23 = load ptr, ptr %22, align 8, !tbaa !42
  br i1 %21, label %.lr.ph.i.i.i, label %_ZNK20btAlignedObjectArrayIP20btPersistentManifoldE4copyEiiPS1_.exit.i.i

.lr.ph.i.i.i:                                     ; preds = %_ZN20btAlignedObjectArrayIP20btPersistentManifoldE8allocateEi.exit.i.i
  %wide.trip.count.i.i.i = zext nneg i32 %20 to i64
  br label %24

24:                                               ; preds = %24, %.lr.ph.i.i.i
  %indvars.iv.i.i.i = phi i64 [ 0, %.lr.ph.i.i.i ], [ %indvars.iv.next.i.i.i, %24 ]
  %25 = getelementptr inbounds nuw ptr, ptr %.0.i.i.i, i64 %indvars.iv.i.i.i
  %26 = getelementptr inbounds nuw ptr, ptr %23, i64 %indvars.iv.i.i.i
  %27 = load ptr, ptr %26, align 8, !tbaa !43
  store ptr %27, ptr %25, align 8, !tbaa !43
  %indvars.iv.next.i.i.i = add nuw nsw i64 %indvars.iv.i.i.i, 1
  %exitcond.not.i.i.i = icmp eq i64 %indvars.iv.next.i.i.i, %wide.trip.count.i.i.i
  br i1 %exitcond.not.i.i.i, label %_ZNK20btAlignedObjectArrayIP20btPersistentManifoldE4copyEiiPS1_.exit.thread.i.i, label %24, !llvm.loop !44

_ZNK20btAlignedObjectArrayIP20btPersistentManifoldE4copyEiiPS1_.exit.i.i: ; preds = %_ZN20btAlignedObjectArrayIP20btPersistentManifoldE8allocateEi.exit.i.i
  %.not.i5.i.i = icmp eq ptr %23, null
  br i1 %.not.i5.i.i, label %_ZN20btAlignedObjectArrayIP20btPersistentManifoldE10deallocateEv.exit.i.i, label %_ZNK20btAlignedObjectArrayIP20btPersistentManifoldE4copyEiiPS1_.exit.thread.i.i

_ZNK20btAlignedObjectArrayIP20btPersistentManifoldE4copyEiiPS1_.exit.thread.i.i: ; preds = %24, %_ZNK20btAlignedObjectArrayIP20btPersistentManifoldE4copyEiiPS1_.exit.i.i
  %28 = getelementptr inbounds nuw i8, ptr %1, i64 24
  %29 = load i8, ptr %28, align 8, !tbaa !46, !range !47, !noundef !48
  %30 = trunc nuw i8 %29 to i1
  br i1 %30, label %31, label %_ZN20btAlignedObjectArrayIP20btPersistentManifoldE10deallocateEv.exit.i.i

31:                                               ; preds = %_ZNK20btAlignedObjectArrayIP20btPersistentManifoldE4copyEiiPS1_.exit.thread.i.i
  tail call void @_Z21btAlignedFreeInternalPv(ptr noundef nonnull %23)
  %.pre2.pre.pre.i = load i32, ptr %6, align 4, !tbaa !37
  br label %_ZN20btAlignedObjectArrayIP20btPersistentManifoldE10deallocateEv.exit.i.i

_ZN20btAlignedObjectArrayIP20btPersistentManifoldE10deallocateEv.exit.i.i: ; preds = %31, %_ZNK20btAlignedObjectArrayIP20btPersistentManifoldE4copyEiiPS1_.exit.thread.i.i, %_ZNK20btAlignedObjectArrayIP20btPersistentManifoldE4copyEiiPS1_.exit.i.i
  %.pre2.i = phi i32 [ %20, %_ZNK20btAlignedObjectArrayIP20btPersistentManifoldE4copyEiiPS1_.exit.i.i ], [ %.pre2.pre.pre.i, %31 ], [ %20, %_ZNK20btAlignedObjectArrayIP20btPersistentManifoldE4copyEiiPS1_.exit.thread.i.i ]
  %32 = getelementptr inbounds nuw i8, ptr %1, i64 24
  store i8 1, ptr %32, align 8, !tbaa !46
  store ptr %.0.i.i.i, ptr %22, align 8, !tbaa !42
  store i32 %13, ptr %8, align 8, !tbaa !41
  %.pre = load ptr, ptr %3, align 8, !tbaa !43
  br label %_ZN20btAlignedObjectArrayIP20btPersistentManifoldE9push_backERKS1_.exit

_ZN20btAlignedObjectArrayIP20btPersistentManifoldE9push_backERKS1_.exit: ; preds = %5, %11, %_ZN20btAlignedObjectArrayIP20btPersistentManifoldE10deallocateEv.exit.i.i
  %33 = phi ptr [ %.pre, %_ZN20btAlignedObjectArrayIP20btPersistentManifoldE10deallocateEv.exit.i.i ], [ %4, %11 ], [ %4, %5 ]
  %34 = phi i32 [ %.pre2.i, %_ZN20btAlignedObjectArrayIP20btPersistentManifoldE10deallocateEv.exit.i.i ], [ %7, %11 ], [ %7, %5 ]
  %35 = getelementptr inbounds nuw i8, ptr %1, i64 16
  %36 = load ptr, ptr %35, align 8, !tbaa !42
  %37 = sext i32 %34 to i64
  %38 = getelementptr inbounds ptr, ptr %36, i64 %37
  store ptr %33, ptr %38, align 8, !tbaa !43
  %39 = add nsw i32 %34, 1
  store i32 %39, ptr %6, align 4, !tbaa !37
  br label %40

40:                                               ; preds = %_ZN20btAlignedObjectArrayIP20btPersistentManifoldE9push_backERKS1_.exit, %2
  ret void
}